target datalayout = "e-m:e-p270:32:32-p271:32:32-p272:64:64-i64:64-i128:128-f80:128-n8:16:32:64-S128"
target triple = "x86_64-unknown-linux-gnu"

%"class.icu_75::UnicodeString" = type { %"class.icu_75::Replaceable", %"union.icu_75::UnicodeString::StackBufferOrFields" }
%"class.icu_75::Replaceable" = type { %"class.icu_75::UObject" }
%"class.icu_75::UObject" = type { ptr }
%"union.icu_75::UnicodeString::StackBufferOrFields" = type { %struct.anon.0, [32 x i8] }
%struct.anon.0 = type { i16, i32, i32, ptr }
%"class.icu_75::ErrorCode" = type <{ ptr, i32, [4 x i8] }>
%struct.__va_list_tag = type { i32, i32, ptr, ptr }

@.str.1 = private unnamed_addr constant [17 x i16] [i16 101, i16 120, i16 112, i16 101, i16 99, i16 116, i16 101, i16 100, i16 32, i16 115, i16 117, i16 99, i16 99, i16 101, i16 115, i16 115, i16 0], align 2

; Function Attrs: mustprogress nounwind uwtable
define internal noundef signext i8 @_ZL9U_FAILURE10UErrorCode(i32 noundef %code) #0 {
entry:
  %code.addr = alloca i32, align 4
  store i32 %code, ptr %code.addr, align 4
  %0 = load i32, ptr %code.addr, align 4
  %cmp = icmp sgt i32 %0, 0
  %conv = zext i1 %cmp to i8
  ret i8 %conv
}

; Function Attrs: mustprogress nounwind uwtable
define linkonce_odr noundef signext i8 @_ZNK6icu_759ErrorCode9isFailureEv(ptr noundef nonnull align 8 dereferenceable(12) %this) #0 comdat align 2 {
entry:
  %this.addr = alloca ptr, align 8
  store ptr %this, ptr %this.addr, align 8
  %this1 = load ptr, ptr %this.addr, align 8
  %errorCode = getelementptr inbounds %"class.icu_75::ErrorCode", ptr %this1, i32 0, i32 1
  %0 = load i32, ptr %errorCode, align 8
  %call = call noundef signext i8 @_ZL9U_FAILURE10UErrorCode(i32 noundef %0)
  ret i8 %call
}

; Function Attrs: mustprogress uwtable
define noundef signext i8 @_ZN16IcuTestErrorCode20errIfFailureAndResetEPKcz(ptr noundef nonnull align 8 dereferenceable(96) %this, ptr noundef %fmt, ...) #1 align 2 personality ptr @__gxx_personality_v0 {
entry:
  %retval = alloca i8, align 1
  %this.addr = alloca ptr, align 8
  %fmt.addr = alloca ptr, align 8
  %buffer = alloca [4000 x i8], align 16
  %ap = alloca [1 x %struct.__va_list_tag], align 16
  %ref.tmp = alloca %"class.icu_75::UnicodeString", align 8
  %exn.slot = alloca ptr, align 8
  %ehselector.slot = alloca i32, align 4
  store ptr %this, ptr %this.addr, align 8
  store ptr %fmt, ptr %fmt.addr, align 8
  %this1 = load ptr, ptr %this.addr, align 8
  %call = call noundef signext i8 @_ZNK6icu_759ErrorCode9isFailureEv(ptr noundef nonnull align 8 dereferenceable(12) %this1)
  %tobool = icmp ne i8 %call, 0
  br i1 %tobool, label %if.then, label %if.else

if.then:                                          ; preds = %entry
  %arraydecay = getelementptr inbounds [1 x %struct.__va_list_tag], ptr %ap, i64 0, i64 0
  call void @llvm.va_start(ptr %arraydecay)
  %arraydecay2 = getelementptr inbounds [4000 x i8], ptr %buffer, i64 0, i64 0
  %0 = load ptr, ptr %fmt.addr, align 8
  %arraydecay3 = getelementptr inbounds [1 x %struct.__va_list_tag], ptr %ap, i64 0, i64 0
  %call4 = call i32 @vsnprintf(ptr noundef %arraydecay2, i64 noundef 4000, ptr noundef %0, ptr noundef %arraydecay3) #11
  %arraydecay5 = getelementptr inbounds [1 x %struct.__va_list_tag], ptr %ap, i64 0, i64 0
  call void @llvm.va_end(ptr %arraydecay5)
  call void @_ZN6icu_7513UnicodeStringC1EPKDs(ptr noundef nonnull align 8 dereferenceable(64) %ref.tmp, ptr noundef @.str.1)
  %arraydecay6 = getelementptr inbounds [4000 x i8], ptr %buffer, i64 0, i64 0
  invoke void @_ZNK16IcuTestErrorCode6errlogEaRKN6icu_7513UnicodeStringEPKc(ptr noundef nonnull align 8 dereferenceable(96) %this1, i8 noundef signext 0, ptr noundef nonnull align 8 dereferenceable(64) %ref.tmp, ptr noundef %arraydecay6)
          to label %invoke.cont unwind label %lpad

invoke.cont:                                      ; preds = %if.then
  call void @_ZN6icu_7513UnicodeStringD1Ev(ptr noundef nonnull align 8 dereferenceable(64) %ref.tmp) #11
  %call7 = call noundef i32 @_ZN6icu_759ErrorCode5resetEv(ptr noundef nonnull align 8 dereferenceable(12) %this1)
  store i8 1, ptr %retval, align 1
  br label %return

lpad:                                             ; preds = %if.then
  %1 = landingpad { ptr, i32 }
          cleanup
  %2 = extractvalue { ptr, i32 } %1, 0
  store ptr %2, ptr %exn.slot, align 8
  %3 = extractvalue { ptr, i32 } %1, 1
  store i32 %3, ptr %ehselector.slot, align 4
  call void @_ZN6icu_7513UnicodeStringD1Ev(ptr noundef nonnull align 8 dereferenceable(64) %ref.tmp) #11
  br label %eh.resume

if.else:                                          ; preds = %entry
  %call8 = call noundef i32 @_ZN6icu_759ErrorCode5resetEv(ptr noundef nonnull align 8 dereferenceable(12) %this1)
  store i8 0, ptr %retval, align 1
  br label %return

return:                                           ; preds = %if.else, %invoke.cont
  %4 = load i8, ptr %retval, align 1
  ret i8 %4

eh.resume:                                        ; preds = %lpad
  %exn = load ptr, ptr %exn.slot, align 8
  %sel = load i32, ptr %ehselector.slot, align 4
  %lpad.val = insertvalue { ptr, i32 } poison, ptr %exn, 0
  %lpad.val9 = insertvalue { ptr, i32 } %lpad.val, i32 %sel, 1
  resume { ptr, i32 } %lpad.val9
}